; Function Attrs: nounwind uwtable
define internal range(i32 0, 2) i32 @encode_case_15_dec(ptr noundef %0, i64 noundef %1) #0 {
  %3 = alloca i64, align 8
  %4 = alloca i64, align 8
  %5 = alloca i64, align 8
  %6 = alloca i64, align 8
  %7 = alloca i32, align 4
  call void @llvm.lifetime.start.p0(i64 8, ptr nonnull %3) #4
  store i64 0, ptr %3, align 8, !tbaa !13
  call void @llvm.lifetime.start.p0(i64 8, ptr nonnull %4) #4
  store i64 0, ptr %4, align 8, !tbaa !13
  call void @llvm.lifetime.start.p0(i64 8, ptr nonnull %5) #4
  store i64 0, ptr %5, align 8, !tbaa !13
  call void @llvm.lifetime.start.p0(i64 8, ptr nonnull %6) #4
  store i64 0, ptr %6, align 8, !tbaa !13
  call void @llvm.lifetime.start.p0(i64 4, ptr nonnull %7) #4
  store i32 1, ptr %7, align 4, !tbaa !33
  %8 = icmp ne i64 %1, 0
  %9 = zext i1 %8 to i32
  %10 = call i32 @ossl_quic_wire_peek_frame_header(ptr noundef %0, ptr noundef nonnull %5, ptr noundef nonnull %7) #4
  %11 = call i32 @test_int_eq(ptr noundef nonnull @.str.5, i32 noundef 684, ptr noundef nonnull @.str.84, ptr noundef nonnull @.str.85, i32 noundef %10, i32 noundef %9) #4
  %.not = icmp eq i32 %11, 0
  br i1 %.not, label %55, label %12

12:                                               ; preds = %2
  %13 = load i32, ptr %7, align 4
  %14 = icmp ne i32 %13, 0
  %not. = xor i1 %8, true
  %15 = select i1 %not., i1 true, i1 %14
  %16 = zext i1 %15 to i32
  %17 = call i32 @test_true(ptr noundef nonnull @.str.5, i32 noundef 687, ptr noundef nonnull @.str.86, i32 noundef %16) #4
  %.not32 = icmp eq i32 %17, 0
  br i1 %.not32, label %55, label %18

18:                                               ; preds = %12
  %19 = icmp ugt i64 %1, 2
  %20 = zext i1 %19 to i32
  %21 = call i32 @ossl_quic_wire_decode_frame_streams_blocked(ptr noundef %0, ptr noundef nonnull %3) #4
  %22 = call i32 @test_int_eq(ptr noundef nonnull @.str.5, i32 noundef 693, ptr noundef nonnull @.str.102, ptr noundef nonnull @.str.85, i32 noundef %21, i32 noundef %20) #4
  %.not33 = icmp eq i32 %22, 0
  br i1 %.not33, label %55, label %23

23:                                               ; preds = %18
  %24 = icmp ugt i64 %1, 3
  %25 = zext i1 %24 to i32
  %26 = call i32 @ossl_quic_wire_peek_frame_header(ptr noundef %0, ptr noundef nonnull %6, ptr noundef nonnull %7) #4
  %27 = call i32 @test_int_eq(ptr noundef nonnull @.str.5, i32 noundef 699, ptr noundef nonnull @.str.88, ptr noundef nonnull @.str.85, i32 noundef %26, i32 noundef %25) #4
  %.not34 = icmp eq i32 %27, 0
  br i1 %.not34, label %55, label %28

28:                                               ; preds = %23
  %29 = load i32, ptr %7, align 4
  %30 = icmp ne i32 %29, 0
  %not.35 = xor i1 %24, true
  %31 = select i1 %not.35, i1 true, i1 %30
  %32 = zext i1 %31 to i32
  %33 = call i32 @test_true(ptr noundef nonnull @.str.5, i32 noundef 702, ptr noundef nonnull @.str.86, i32 noundef %32) #4
  %.not36 = icmp eq i32 %33, 0
  br i1 %.not36, label %55, label %34

34:                                               ; preds = %28
  %35 = call i32 @ossl_quic_wire_decode_frame_streams_blocked(ptr noundef %0, ptr noundef nonnull %4) #4
  %36 = icmp ugt i64 %1, 7
  %37 = zext i1 %36 to i32
  %38 = call i32 @test_int_eq(ptr noundef nonnull @.str.5, i32 noundef 707, ptr noundef nonnull @.str.103, ptr noundef nonnull @.str.104, i32 noundef %35, i32 noundef %37) #4
  %.not37 = icmp eq i32 %38, 0
  br i1 %.not37, label %55, label %39

39:                                               ; preds = %34
  br i1 %8, label %40, label %.thread44

40:                                               ; preds = %39
  %41 = load i64, ptr %5, align 8, !tbaa !13
  %42 = call i32 @test_uint64_t_eq(ptr noundef nonnull @.str.5, i32 noundef 711, ptr noundef nonnull @.str.90, ptr noundef nonnull @.str.105, i64 noundef %41, i64 noundef 22) #4
  %.not38 = icmp eq i32 %42, 0
  br i1 %.not38, label %55, label %43

43:                                               ; preds = %40
  br i1 %19, label %44, label %.thread44

44:                                               ; preds = %43
  %45 = load i64, ptr %3, align 8, !tbaa !13
  %46 = call i32 @test_uint64_t_eq(ptr noundef nonnull @.str.5, i32 noundef 715, ptr noundef nonnull @.str.92, ptr noundef nonnull @.str.55, i64 noundef %45, i64 noundef 4660) #4
  %.not39 = icmp eq i32 %46, 0
  br i1 %.not39, label %55, label %47

47:                                               ; preds = %44
  br i1 %24, label %48, label %.thread44

48:                                               ; preds = %47
  %49 = load i64, ptr %6, align 8, !tbaa !13
  %50 = call i32 @test_uint64_t_eq(ptr noundef nonnull @.str.5, i32 noundef 719, ptr noundef nonnull @.str.93, ptr noundef nonnull @.str.106, i64 noundef %49, i64 noundef 23) #4
  %.not40 = icmp eq i32 %50, 0
  br i1 %.not40, label %55, label %51

51:                                               ; preds = %48
  br i1 %36, label %52, label %.thread44

52:                                               ; preds = %51
  %53 = load i64, ptr %4, align 8, !tbaa !13
  %54 = call i32 @test_uint64_t_eq(ptr noundef nonnull @.str.5, i32 noundef 723, ptr noundef nonnull @.str.95, ptr noundef nonnull @.str.81, i64 noundef %53, i64 noundef 38785) #4
  %.not41 = icmp eq i32 %54, 0
  br i1 %.not41, label %55, label %.thread44

.thread44:                                        ; preds = %39, %43, %47, %51, %52
  br label %55

55:                                               ; preds = %52, %48, %44, %40, %34, %28, %23, %18, %12, %2, %.thread44
  %.0 = phi i32 [ 1, %.thread44 ], [ 0, %2 ], [ 0, %12 ], [ 0, %18 ], [ 0, %23 ], [ 0, %28 ], [ 0, %34 ], [ 0, %40 ], [ 0, %44 ], [ 0, %48 ], [ 0, %52 ]
  call void @llvm.lifetime.end.p0(i64 4, ptr nonnull %7) #4
  call void @llvm.lifetime.end.p0(i64 8, ptr nonnull %6) #4
  call void @llvm.lifetime.end.p0(i64 8, ptr nonnull %5) #4
  call void @llvm.lifetime.end.p0(i64 8, ptr nonnull %4) #4
  call void @llvm.lifetime.end.p0(i64 8, ptr nonnull %3) #4
  ret i32 %.0
}